target datalayout = "e-m:e-p270:32:32-p271:32:32-p272:64:64-i64:64-i128:128-f80:128-n8:16:32:64-S128"
target triple = "x86_64-pc-linux-gnu"

; Function Attrs: mustprogress nounwind uwtable
define hidden noundef double @_ZN2cv4epnp5dist2EPKdS2_(ptr noundef nonnull align 8 dereferenceable(352) %0, ptr noundef %1, ptr noundef %2) #5 align 2 {
  %4 = alloca ptr, align 8
  %5 = alloca ptr, align 8
  %6 = alloca ptr, align 8
  store ptr %0, ptr %4, align 8, !tbaa !3
  store ptr %1, ptr %5, align 8, !tbaa !83
  store ptr %2, ptr %6, align 8, !tbaa !83
  %7 = load ptr, ptr %5, align 8, !tbaa !83
  %8 = getelementptr inbounds double, ptr %7, i64 0
  %9 = load double, ptr %8, align 8, !tbaa !40
  %10 = load ptr, ptr %6, align 8, !tbaa !83
  %11 = getelementptr inbounds double, ptr %10, i64 0
  %12 = load double, ptr %11, align 8, !tbaa !40
  %13 = fsub double %9, %12
  %14 = load ptr, ptr %5, align 8, !tbaa !83
  %15 = getelementptr inbounds double, ptr %14, i64 0
  %16 = load double, ptr %15, align 8, !tbaa !40
  %17 = load ptr, ptr %6, align 8, !tbaa !83
  %18 = getelementptr inbounds double, ptr %17, i64 0
  %19 = load double, ptr %18, align 8, !tbaa !40
  %20 = fsub double %16, %19
  %21 = load ptr, ptr %5, align 8, !tbaa !83
  %22 = getelementptr inbounds double, ptr %21, i64 1
  %23 = load double, ptr %22, align 8, !tbaa !40
  %24 = load ptr, ptr %6, align 8, !tbaa !83
  %25 = getelementptr inbounds double, ptr %24, i64 1
  %26 = load double, ptr %25, align 8, !tbaa !40
  %27 = fsub double %23, %26
  %28 = load ptr, ptr %5, align 8, !tbaa !83
  %29 = getelementptr inbounds double, ptr %28, i64 1
  %30 = load double, ptr %29, align 8, !tbaa !40
  %31 = load ptr, ptr %6, align 8, !tbaa !83
  %32 = getelementptr inbounds double, ptr %31, i64 1
  %33 = load double, ptr %32, align 8, !tbaa !40
  %34 = fsub double %30, %33
  %35 = fmul double %27, %34
  %36 = call double @llvm.fmuladd.f64(double %13, double %20, double %35)
  %37 = load ptr, ptr %5, align 8, !tbaa !83
  %38 = getelementptr inbounds double, ptr %37, i64 2
  %39 = load double, ptr %38, align 8, !tbaa !40
  %40 = load ptr, ptr %6, align 8, !tbaa !83
  %41 = getelementptr inbounds double, ptr %40, i64 2
  %42 = load double, ptr %41, align 8, !tbaa !40
  %43 = fsub double %39, %42
  %44 = load ptr, ptr %5, align 8, !tbaa !83
  %45 = getelementptr inbounds double, ptr %44, i64 2
  %46 = load double, ptr %45, align 8, !tbaa !40
  %47 = load ptr, ptr %6, align 8, !tbaa !83
  %48 = getelementptr inbounds double, ptr %47, i64 2
  %49 = load double, ptr %48, align 8, !tbaa !40
  %50 = fsub double %46, %49
  %51 = call double @llvm.fmuladd.f64(double %43, double %50, double %36)
  ret double %51
}