; Function Attrs: mustprogress nofree norecurse nosync nounwind willreturn memory(argmem: read) uwtable
define hidden noundef double @_ZN2cv4epnp5dist2EPKdS2_(ptr noundef nonnull readnone align 8 captures(none) dereferenceable(352) %0, ptr noundef readonly captures(none) %1, ptr noundef readonly captures(none) %2) local_unnamed_addr #15 align 2 {
  %4 = load double, ptr %1, align 8, !tbaa !32
  %5 = load double, ptr %2, align 8, !tbaa !32
  %6 = fsub double %4, %5
  %7 = getelementptr inbounds nuw i8, ptr %1, i64 8
  %8 = load double, ptr %7, align 8, !tbaa !32
  %9 = getelementptr inbounds nuw i8, ptr %2, i64 8
  %10 = load double, ptr %9, align 8, !tbaa !32
  %11 = fsub double %8, %10
  %12 = fmul double %11, %11
  %13 = tail call double @llvm.fmuladd.f64(double %6, double %6, double %12)
  %14 = getelementptr inbounds nuw i8, ptr %1, i64 16
  %15 = load double, ptr %14, align 8, !tbaa !32
  %16 = getelementptr inbounds nuw i8, ptr %2, i64 16
  %17 = load double, ptr %16, align 8, !tbaa !32
  %18 = fsub double %15, %17
  %19 = tail call double @llvm.fmuladd.f64(double %18, double %18, double %13)
  ret double %19
}